target datalayout = "e-m:e-p270:32:32-p271:32:32-p272:64:64-i64:64-i128:128-f80:128-n8:16:32:64-S128"
target triple = "x86_64-pc-linux-gnu"

%struct.xcgroup_ns_t = type { ptr, ptr, ptr, ptr }
%struct.xcgroup_t = type { ptr, ptr, ptr, i32, i32, i32 }

@g_cg_ns = internal global [5 x %struct.xcgroup_ns_t] zeroinitializer, align 16
@int_cg = internal global [5 x [9 x %struct.xcgroup_t]] zeroinitializer, align 16

; Function Attrs: nounwind uwtable
define dso_local zeroext i1 @cgroup_p_has_pid(i32 noundef %0) #0 {
  %2 = alloca i1, align 1
  %3 = alloca i32, align 4
  %4 = alloca i8, align 1
  %5 = alloca i32, align 4
  %6 = alloca %struct.xcgroup_t, align 8
  %7 = alloca i32, align 4
  store i32 %0, ptr %3, align 4
  call void @llvm.lifetime.start.p0(i64 1, ptr %4) #7
  call void @llvm.lifetime.start.p0(i64 4, ptr %5) #7
  call void @llvm.lifetime.start.p0(i64 40, ptr %6) #7
  %8 = load i32, ptr %3, align 4
  %9 = call i32 @xcgroup_ns_find_by_pid(ptr noundef @g_cg_ns, ptr noundef %6, i32 noundef %8)
  store i32 %9, ptr %5, align 4
  %10 = load i32, ptr %5, align 4
  %11 = icmp ne i32 %10, 0
  br i1 %11, label %12, label %13

12:                                               ; preds = %1
  store i1 false, ptr %2, align 1
  store i32 1, ptr %7, align 4
  br label %23

13:                                               ; preds = %1
  store i8 1, ptr %4, align 1
  %14 = getelementptr inbounds nuw %struct.xcgroup_t, ptr %6, i32 0, i32 2
  %15 = load ptr, ptr %14, align 8
  %16 = load ptr, ptr getelementptr inbounds nuw (%struct.xcgroup_t, ptr getelementptr inbounds ([9 x %struct.xcgroup_t], ptr @int_cg, i64 0, i64 4), i32 0, i32 2), align 16
  %17 = call i32 @xstrcmp(ptr noundef %15, ptr noundef %16)
  %18 = icmp ne i32 %17, 0
  br i1 %18, label %19, label %20

19:                                               ; preds = %13
  store i8 0, ptr %4, align 1
  br label %20

20:                                               ; preds = %19, %13
  call void @common_cgroup_destroy(ptr noundef %6)
  %21 = load i8, ptr %4, align 1, !range !12, !noundef !13
  %22 = trunc i8 %21 to i1
  store i1 %22, ptr %2, align 1
  store i32 1, ptr %7, align 4
  br label %23

23:                                               ; preds = %20, %12
  call void @llvm.lifetime.end.p0(i64 40, ptr %6) #7
  call void @llvm.lifetime.end.p0(i64 4, ptr %5) #7
  call void @llvm.lifetime.end.p0(i64 1, ptr %4) #7
  %24 = load i1, ptr %2, align 1
  ret i1 %24
}