; Function Attrs: nounwind uwtable
define dso_local zeroext i1 @cgroup_p_has_pid(i32 noundef %0) local_unnamed_addr #0 {
  %2 = alloca %struct.xcgroup_t, align 8
  call void @llvm.lifetime.start.p0(i64 40, ptr nonnull %2) #11
  %3 = call i32 @xcgroup_ns_find_by_pid(ptr noundef nonnull @g_cg_ns, ptr noundef nonnull %2, i32 noundef %0) #11
  %.not = icmp eq i32 %3, 0
  br i1 %.not, label %4, label %9

4:                                                ; preds = %1
  %5 = getelementptr inbounds nuw i8, ptr %2, i64 16
  %6 = load ptr, ptr %5, align 8
  %7 = load ptr, ptr getelementptr inbounds nuw (i8, ptr @int_cg, i64 176), align 16
  %8 = call i32 @xstrcmp(ptr noundef %6, ptr noundef %7) #11
  %.not4 = icmp eq i32 %8, 0
  call void @common_cgroup_destroy(ptr noundef nonnull %2) #11
  br label %9

9:                                                ; preds = %1, %4
  %.0 = phi i1 [ %.not4, %4 ], [ false, %1 ]
  call void @llvm.lifetime.end.p0(i64 40, ptr nonnull %2) #11
  ret i1 %.0
}